target datalayout = "e-m:e-p270:32:32-p271:32:32-p272:64:64-i64:64-i128:128-f80:128-n8:16:32:64-S128"
target triple = "x86_64-unknown-linux-gnu"

%"class.std::set.0" = type { %"class.std::_Rb_tree.1" }
%"class.std::_Rb_tree.1" = type { %"struct.std::_Rb_tree<QuantLib::Observer *, QuantLib::Observer *, std::_Identity<QuantLib::Observer *>, std::less<QuantLib::Observer *>>::_Rb_tree_impl" }
%"struct.std::_Rb_tree<QuantLib::Observer *, QuantLib::Observer *, std::_Identity<QuantLib::Observer *>, std::less<QuantLib::Observer *>>::_Rb_tree_impl" = type { [8 x i8], %"struct.std::_Rb_tree_header" }
%"struct.std::_Rb_tree_header" = type { %"struct.std::_Rb_tree_node_base", i64 }
%"struct.std::_Rb_tree_node_base" = type { i32, ptr, ptr, ptr }
%"class.std::set" = type { %"class.std::_Rb_tree" }
%"class.std::_Rb_tree" = type { %"struct.std::_Rb_tree<boost::shared_ptr<QuantLib::Observable>, boost::shared_ptr<QuantLib::Observable>, std::_Identity<boost::shared_ptr<QuantLib::Observable>>, std::less<boost::shared_ptr<QuantLib::Observable>>>::_Rb_tree_impl" }
%"struct.std::_Rb_tree<boost::shared_ptr<QuantLib::Observable>, boost::shared_ptr<QuantLib::Observable>, std::_Identity<boost::shared_ptr<QuantLib::Observable>>, std::less<boost::shared_ptr<QuantLib::Observable>>>::_Rb_tree_impl" = type { [8 x i8], %"struct.std::_Rb_tree_header" }
%"class.boost::detail::shared_count" = type { ptr }
%"class.QuantLib::Observable" = type { ptr, %"class.std::set.0" }
%"class.boost::shared_ptr.7" = type { ptr, %"class.boost::detail::shared_count" }
%"class.QuantLib::GemanRoncoroniProcess" = type { %"class.QuantLib::StochasticProcess1D", double, double, double, double, double, double, double, double, double, double, double, double, double, double, double, double, double, %"class.boost::shared_ptr.8" }
%"class.QuantLib::StochasticProcess1D" = type { %"class.QuantLib::StochasticProcess", %"class.boost::shared_ptr.7" }
%"class.QuantLib::StochasticProcess" = type { %"class.QuantLib::Observer", %"class.QuantLib::Observable", %"class.boost::shared_ptr.6" }
%"class.QuantLib::Observer" = type { ptr, %"class.std::set" }
%"class.boost::shared_ptr.6" = type { ptr, %"class.boost::detail::shared_count" }
%"class.boost::shared_ptr.8" = type { ptr, %"class.boost::detail::shared_count" }

; Function Attrs: inlinehint mustprogress nounwind uwtable
define linkonce_odr noundef double @_ZN8QuantLib7squaredIdEET_S1_(double noundef %x) #5 comdat {
entry:
  %x.addr = alloca double, align 8
  store double %x, ptr %x.addr, align 8, !tbaa !12
  %0 = load double, ptr %x.addr, align 8, !tbaa !12
  %1 = load double, ptr %x.addr, align 8, !tbaa !12
  %mul = fmul double %0, %1
  ret double %mul
}

; Function Attrs: mustprogress uwtable
define noundef double @_ZNK8QuantLib21GemanRoncoroniProcess9diffusionEdd(ptr noundef nonnull align 8 dereferenceable(296) %this, double noundef %t, double noundef %0) unnamed_addr #2 align 2 {
entry:
  %this.addr = alloca ptr, align 8
  %t.addr = alloca double, align 8
  %.addr = alloca double, align 8
  store ptr %this, ptr %this.addr, align 8, !tbaa !3
  store double %t, ptr %t.addr, align 8, !tbaa !12
  store double %0, ptr %.addr, align 8, !tbaa !12
  %this1 = load ptr, ptr %this.addr, align 8
  %sig2_ = getelementptr inbounds nuw %"class.QuantLib::GemanRoncoroniProcess", ptr %this1, i32 0, i32 11
  %1 = load double, ptr %sig2_, align 8, !tbaa !48
  %a_ = getelementptr inbounds nuw %"class.QuantLib::GemanRoncoroniProcess", ptr %this1, i32 0, i32 12
  %2 = load double, ptr %a_, align 8, !tbaa !49
  %3 = load double, ptr %t.addr, align 8, !tbaa !12
  %b_ = getelementptr inbounds nuw %"class.QuantLib::GemanRoncoroniProcess", ptr %this1, i32 0, i32 13
  %4 = load double, ptr %b_, align 8, !tbaa !50
  %5 = call double @llvm.fmuladd.f64(double 0x400921FB54442D18, double %3, double %4)
  %call = call double @cos(double noundef %5) #12, !tbaa !57
  %call2 = call noundef double @_ZN8QuantLib7squaredIdEET_S1_(double noundef %call)
  %6 = call double @llvm.fmuladd.f64(double %2, double %call2, double %1)
  %call3 = call double @sqrt(double noundef %6) #12, !tbaa !57
  ret double %call3
}